Certificate:
    Data:
        Version: 3 (0x2)
        Serial Number: 1 (0x1)
    Signature Algorithm: sha256WithRSAEncryption
        Issuer: C=CN, ST=Zhejiang, L=HangZhou, O=harmonycloud, OU=skyview, CN=*.caas-system.svc
        Validity
            Not Before: Jun  5 15:15:15 2020 GMT
            Not After : Jun  3 15:15:15 2030 GMT
        Subject: C=CN, ST=Zhejiang, O=harmonycloud, OU=skyview, CN=*.caas-system.svc
        Subject Public Key Info:
            Public Key Algorithm: rsaEncryption
                Public-Key: (2048 bit)
                Modulus:
                    00:d7:44:95:c1:d5:85:b7:3f:6c:8a:69:4d:0e:27:
                    fa:fc:b3:a2:62:da:33:0a:c8:de:42:9d:ea:9e:ce:
                    78:99:31:71:99:a5:42:8a:58:19:10:e2:37:9b:41:
                    c8:60:d8:f7:a3:bb:96:2e:1b:4a:ce:96:7b:d2:0e:
                    75:7e:ab:0a:e3:61:d9:b0:54:f5:8b:cd:1b:bf:fe:
                    c5:42:16:98:b3:8b:24:70:7a:6a:c2:9a:10:53:9e:
                    20:55:0a:57:7d:03:f5:2e:91:a9:af:c8:40:f4:7f:
                    81:65:9b:39:14:b9:94:29:1e:1d:e0:b8:a4:98:f0:
                    44:cf:c5:30:d2:6c:88:be:68:56:5e:75:64:25:41:
                    da:99:26:3b:a6:a2:67:46:93:ae:fe:da:53:5a:d0:
                    04:3d:44:79:fb:6e:94:bb:55:96:5f:70:c7:bc:d7:
                    6a:49:3e:2c:ce:16:0b:34:8e:65:99:18:da:43:c6:
                    95:c3:f5:e6:21:f1:ac:f8:4e:5e:d9:18:38:1a:6a:
                    96:56:b0:34:f0:c5:35:23:9e:9e:d5:d8:8d:0c:79:
                    c0:bc:bc:b6:b1:dc:aa:35:1e:29:c4:fe:65:29:47:
                    5e:bf:51:cc:2b:e3:b6:a1:b8:b4:c6:69:f0:5b:3a:
                    c0:36:63:87:0b:7e:43:70:0e:9b:06:84:27:88:e7:
                    cd:61
                Exponent: 65537 (0x10001)
        X509v3 extensions:
            X509v3 Basic Constraints: 
                CA:FALSE
            Netscape Comment: 
                OpenSSL Generated Certificate
            X509v3 Subject Key Identifier: 
                A0:87:88:7B:6D:FA:C8:A0:4C:4B:A7:EC:1F:4C:E5:14:DB:75:E2:68
            X509v3 Authority Key Identifier: 
                keyid:45:38:E1:92:02:B4:3E:C1:67:71:B1:1C:C7:5F:15:CA:57:37:D9:1A

    Signature Algorithm: sha256WithRSAEncryption
         13:a1:ae:84:77:3c:8f:49:20:2e:30:aa:2d:2d:93:67:6b:d5:
         25:e9:a2:ed:e0:1f:d8:39:a2:46:2e:50:c2:1c:3f:a6:ea:31:
         61:9e:0c:46:8f:d6:1d:3e:26:22:60:2b:98:fb:7a:24:6b:63:
         ad:f1:87:d2:9b:24:4a:21:fb:8f:c6:a3:4f:23:db:db:d6:65:
         26:05:07:02:93:b7:f7:7d:e5:ae:28:91:86:f2:76:e4:95:e0:
         ea:6b:69:bf:54:0f:38:11:8f:73:14:66:89:70:80:82:81:26:
         07:d5:b7:a7:4d:04:07:82:a1:16:9a:32:d4:e2:c6:c5:b7:8e:
         d8:20:b2:23:34:ee:ef:65:80:3a:8d:08:15:7c:7e:0f:dd:d5:
         14:55:d9:e7:37:25:98:04:e9:c0:04:10:42:40:15:9f:15:53:
         60:13:da:be:31:d3:a2:ce:92:28:fd:e7:9e:95:7b:bb:1c:dd:
         d4:59:82:52:6f:46:07:6d:a9:b1:4d:0e:88:2a:d0:45:a0:a4:
         da:c1:06:48:92:5f:1f:40:68:d7:2d:87:97:14:68:92:f0:eb:
         03:57:d0:23:6e:f2:fb:72:34:8b:c2:33:2f:ec:98:63:c8:98:
         1e:1a:bd:e5:10:e1:25:f1:9a:e5:67:3b:11:a3:61:c7:17:57:
         9f:ca:98:eb
-----BEGIN CERTIFICATE-----
MIID0zCCArugAwIBAgIBATANBgkqhkiG9w0BAQsFADB4MQswCQYDVQQGEwJDTjER
MA8GA1UECAwIWmhlamlhbmcxETAPBgNVBAcMCEhhbmdaaG91MRUwEwYDVQQKDAxo
YXJtb255Y2xvdWQxEDAOBgNVBAsMB3NreXZpZXcxGjAYBgNVBAMMESouY2Fhcy1z
eXN0ZW0uc3ZjMB4XDTIwMDYwNTE1MTUxNVoXDTMwMDYwMzE1MTUxNVowZTELMAkG
A1UEBhMCQ04xETAPBgNVBAgMCFpoZWppYW5nMRUwEwYDVQQKDAxoYXJtb255Y2xv
dWQxEDAOBgNVBAsMB3NreXZpZXcxGjAYBgNVBAMMESouY2Fhcy1zeXN0ZW0uc3Zj
MIIBIjANBgkqhkiG9w0BAQEFAAOCAQ8AMIIBCgKCAQEA10SVwdWFtz9simlNDif6
/LOiYtozCsjeQp3qns54mTFxmaVCilgZEOI3m0HIYNj3o7uWLhtKzpZ70g51fqsK
42HZsFT1i80bv/7FQhaYs4skcHpqwpoQU54gVQpXfQP1LpGpr8hA9H+BZZs5FLmU
KR4d4LikmPBEz8Uw0myIvmhWXnVkJUHamSY7pqJnRpOu/tpTWtAEPUR5+26Uu1WW
X3DHvNdqST4szhYLNI5lmRjaQ8aVw/XmIfGs+E5e2Rg4GmqWVrA08MU1I56e1diN
DHnAvLy2sdyqNR4pxP5lKUdev1HMK+O2obi0xmnwWzrANmOHC35DcA6bBoQniOfN
YQIDAQABo3sweTAJBgNVHRMEAjAAMCwGCWCGSAGG+EIBDQQfFh1PcGVuU1NMIEdl
bmVyYXRlZCBDZXJ0aWZpY2F0ZTAdBgNVHQ4EFgQUoIeIe236yKBMS6fsH0zlFNt1
4mgwHwYDVR0jBBgwFoAURTjhkgK0PsFncbEcx18Vylc32RowDQYJKoZIhvcNAQEL
BQADggEBABOhroR3PI9JIC4wqi0tk2dr1SXpou3gH9g5okYuUMIcP6bqMWGeDEaP
1h0+JiJgK5j7eiRrY63xh9KbJEoh+4/Go08j29vWZSYFBwKTt/d95a4okYbyduSV
4Oprab9UDzgRj3MUZolwgIKBJgfVt6dNBAeCoRaaMtTixsW3jtggsiM07u9lgDqN
CBV8fg/d1RRV2ec3JZgE6cAEEEJAFZ8VU2AT2r4x06LOkij9556Ve7sc3dRZglJv
RgdtqbFNDogq0EWgpNrBBkiSXx9AaNcth5cUaJLw6wNX0CNu8vtyNIvCMy/smGPI
mB4aveUQ4SXxmuVnOxGjYccXV5/KmOs=
-----END CERTIFICATE-----
